
crc32.riscv:     file format elf32-littleriscv

Sections:
Idx Name          Size      VMA       LMA       File off  Algn
  0 .text.isr     00000104  00000080  00000080  00000080  2**0
                  CONTENTS, ALLOC, LOAD, READONLY, CODE
  1 .text.init    000000a4  00000200  00000200  00000200  2**0
                  CONTENTS, ALLOC, LOAD, READONLY, CODE
  2 .text         00000300  000002a4  000002a4  000002a4  2**2
                  CONTENTS, ALLOC, LOAD, READONLY, CODE
  3 .text.startup 00000034  000005a4  000005a4  000005a4  2**2
                  CONTENTS, ALLOC, LOAD, READONLY, CODE
  4 .rodata       00000400  000005d8  000005d8  000005d8  2**2
                  CONTENTS, ALLOC, LOAD, READONLY, DATA
  5 .data         0000004c  000009d8  000009d8  000009d8  2**2
                  CONTENTS, ALLOC, LOAD, DATA
  6 .comment      0000001b  00000000  00000000  00000a24  2**0
                  CONTENTS, READONLY
  7 .riscv.attributes 0000002e  00000000  00000000  00000a3f  2**0
                  CONTENTS, READONLY

Disassembly of section .text.isr:

00000080 <isr_entry>:
  80:	00112023          	sw	ra,0(sp)
  84:	fe312e23          	sw	gp,-4(sp)
  88:	fe412c23          	sw	tp,-8(sp)
  8c:	fe512a23          	sw	t0,-12(sp)
  90:	fe612823          	sw	t1,-16(sp)
  94:	fe712623          	sw	t2,-20(sp)
  98:	fe812423          	sw	s0,-24(sp)
  9c:	fe912223          	sw	s1,-28(sp)
  a0:	fea12023          	sw	a0,-32(sp)
  a4:	fcb12e23          	sw	a1,-36(sp)
  a8:	fcc12c23          	sw	a2,-40(sp)
  ac:	fcd12a23          	sw	a3,-44(sp)
  b0:	fce12823          	sw	a4,-48(sp)
  b4:	fcf12623          	sw	a5,-52(sp)
  b8:	fd012423          	sw	a6,-56(sp)
  bc:	fd112223          	sw	a7,-60(sp)
  c0:	fd212023          	sw	s2,-64(sp)
  c4:	fb312e23          	sw	s3,-68(sp)
  c8:	fb412c23          	sw	s4,-72(sp)
  cc:	fb512a23          	sw	s5,-76(sp)
  d0:	fb612823          	sw	s6,-80(sp)
  d4:	fb712623          	sw	s7,-84(sp)
  d8:	fb812423          	sw	s8,-88(sp)
  dc:	fb912223          	sw	s9,-92(sp)
  e0:	fba12023          	sw	s10,-96(sp)
  e4:	f9b12e23          	sw	s11,-100(sp)
  e8:	f9c12c23          	sw	t3,-104(sp)
  ec:	f9d12a23          	sw	t4,-108(sp)
  f0:	f9e12823          	sw	t5,-112(sp)
  f4:	f9f12623          	sw	t6,-116(sp)
  f8:	f8010113          	addi	sp,sp,-128
  fc:	00002573          	csrr	a0,ustatus
 100:	238000ef          	jal	ra,338 <__int_handler>
 104:	08010113          	addi	sp,sp,128
 108:	00012083          	lw	ra,0(sp)
 10c:	ffc12183          	lw	gp,-4(sp)
 110:	ff812203          	lw	tp,-8(sp)
 114:	ff412283          	lw	t0,-12(sp)
 118:	ff012303          	lw	t1,-16(sp)
 11c:	fec12383          	lw	t2,-20(sp)
 120:	fe812403          	lw	s0,-24(sp)
 124:	fe412483          	lw	s1,-28(sp)
 128:	fe012503          	lw	a0,-32(sp)
 12c:	fdc12583          	lw	a1,-36(sp)
 130:	fd812603          	lw	a2,-40(sp)
 134:	fd412683          	lw	a3,-44(sp)
 138:	fd012703          	lw	a4,-48(sp)
 13c:	fcc12783          	lw	a5,-52(sp)
 140:	fc812803          	lw	a6,-56(sp)
 144:	fc412883          	lw	a7,-60(sp)
 148:	fc012903          	lw	s2,-64(sp)
 14c:	fbc12983          	lw	s3,-68(sp)
 150:	fb812a03          	lw	s4,-72(sp)
 154:	fb412a83          	lw	s5,-76(sp)
 158:	fb012b03          	lw	s6,-80(sp)
 15c:	fac12b83          	lw	s7,-84(sp)
 160:	fa812c03          	lw	s8,-88(sp)
 164:	fa412c83          	lw	s9,-92(sp)
 168:	fa012d03          	lw	s10,-96(sp)
 16c:	f9c12d83          	lw	s11,-100(sp)
 170:	f9812e03          	lw	t3,-104(sp)
 174:	f9412e83          	lw	t4,-108(sp)
 178:	f9012f03          	lw	t5,-112(sp)
 17c:	f8c12f83          	lw	t6,-116(sp)
 180:	30200073          	mret

Disassembly of section .text.init:

00000200 <_start>:
 200:	00000093          	li	ra,0
 204:	00000113          	li	sp,0
 208:	00000193          	li	gp,0
 20c:	00000213          	li	tp,0
 210:	00000293          	li	t0,0
 214:	00000313          	li	t1,0
 218:	00000393          	li	t2,0
 21c:	00000413          	li	s0,0
 220:	00000493          	li	s1,0
 224:	00000513          	li	a0,0
 228:	00000593          	li	a1,0
 22c:	00000613          	li	a2,0
 230:	00000693          	li	a3,0
 234:	00000713          	li	a4,0
 238:	00000793          	li	a5,0
 23c:	00000813          	li	a6,0
 240:	00000893          	li	a7,0
 244:	00000913          	li	s2,0
 248:	00000993          	li	s3,0
 24c:	00000a13          	li	s4,0
 250:	00000a93          	li	s5,0
 254:	00000b13          	li	s6,0
 258:	00000b93          	li	s7,0
 25c:	00000c13          	li	s8,0
 260:	00000c93          	li	s9,0
 264:	00000d13          	li	s10,0
 268:	00000d93          	li	s11,0
 26c:	00000e13          	li	t3,0
 270:	00000e93          	li	t4,0
 274:	00000f13          	li	t5,0
 278:	00000f93          	li	t6,0
 27c:	00001197          	auipc	gp,0x1
 280:	fa818193          	addi	gp,gp,-88 # 1224 <__global_pointer$>
 284:	83f18213          	addi	tp,gp,-1985 # a63 <_end+0x3f>
 288:	fc027213          	andi	tp,tp,-64
 28c:	00e51613          	slli	a2,a0,0xe
 290:	00c20233          	add	tp,tp,a2
 294:	00150113          	addi	sp,a0,1
 298:	00e11113          	slli	sp,sp,0xe
 29c:	00410133          	add	sp,sp,tp
 2a0:	3040006f          	j	5a4 <main>

Disassembly of section .text:

000002a4 <crc32>:
 2a4:	c0010113          	addi	sp,sp,-1024
 2a8:	5d800793          	li	a5,1496
 2ac:	00010713          	mv	a4,sp
 2b0:	00000317          	auipc	t1,0x0
 2b4:	72830313          	addi	t1,t1,1832 # 9d8 <INPUT>
 2b8:	0007a883          	lw	a7,0(a5)
 2bc:	0047a803          	lw	a6,4(a5)
 2c0:	0087a603          	lw	a2,8(a5)
 2c4:	00c7a683          	lw	a3,12(a5)
 2c8:	01172023          	sw	a7,0(a4)
 2cc:	01072223          	sw	a6,4(a4)
 2d0:	00c72423          	sw	a2,8(a4)
 2d4:	00d72623          	sw	a3,12(a4)
 2d8:	01078793          	addi	a5,a5,16
 2dc:	01070713          	addi	a4,a4,16
 2e0:	fc679ce3          	bne	a5,t1,2b8 <crc32+0x14>
 2e4:	04b05463          	blez	a1,32c <crc32+0x88>
 2e8:	00259593          	slli	a1,a1,0x2
 2ec:	00b50633          	add	a2,a0,a1
 2f0:	fff00793          	li	a5,-1
 2f4:	00052683          	lw	a3,0(a0)
 2f8:	0087d713          	srli	a4,a5,0x8
 2fc:	00450513          	addi	a0,a0,4
 300:	00d7c7b3          	xor	a5,a5,a3
 304:	0ff7f793          	zext.b	a5,a5
 308:	00279793          	slli	a5,a5,0x2
 30c:	40078793          	addi	a5,a5,1024
 310:	002787b3          	add	a5,a5,sp
 314:	c007a783          	lw	a5,-1024(a5)
 318:	00e7c7b3          	xor	a5,a5,a4
 31c:	fca61ce3          	bne	a2,a0,2f4 <crc32+0x50>
 320:	fff7c513          	not	a0,a5
 324:	40010113          	addi	sp,sp,1024
 328:	00008067          	ret
 32c:	00000513          	li	a0,0
 330:	40010113          	addi	sp,sp,1024
 334:	00008067          	ret

00000338 <__int_handler>:
 338:	00251693          	slli	a3,a0,0x2
 33c:	00000717          	auipc	a4,0x0
 340:	6c070713          	addi	a4,a4,1728 # 9fc <isr>
 344:	00d70733          	add	a4,a4,a3
 348:	00072703          	lw	a4,0(a4)
 34c:	fff00693          	li	a3,-1
 350:	00d70863          	beq	a4,a3,360 <__int_handler+0x28>
 354:	00900693          	li	a3,9
 358:	00a6c463          	blt	a3,a0,360 <__int_handler+0x28>
 35c:	00070067          	jr	a4
 360:	00008067          	ret

00000364 <ConnectISR>:
 364:	00900793          	li	a5,9
 368:	02a7c063          	blt	a5,a0,388 <ConnectISR+0x24>
 36c:	00251513          	slli	a0,a0,0x2
 370:	00000797          	auipc	a5,0x0
 374:	68c78793          	addi	a5,a5,1676 # 9fc <isr>
 378:	00a787b3          	add	a5,a5,a0
 37c:	00b7a023          	sw	a1,0(a5)
 380:	00000513          	li	a0,0
 384:	00008067          	ret
 388:	fff00513          	li	a0,-1
 38c:	00008067          	ret

00000390 <memcpy>:
 390:	00b567b3          	or	a5,a0,a1
 394:	00c7e7b3          	or	a5,a5,a2
 398:	0037f793          	andi	a5,a5,3
 39c:	00c506b3          	add	a3,a0,a2
 3a0:	02078463          	beqz	a5,3c8 <memcpy+0x38>
 3a4:	00c58633          	add	a2,a1,a2
 3a8:	00050793          	mv	a5,a0
 3ac:	02d57e63          	bgeu	a0,a3,3e8 <memcpy+0x58>
 3b0:	0005c703          	lbu	a4,0(a1)
 3b4:	00158593          	addi	a1,a1,1
 3b8:	00178793          	addi	a5,a5,1
 3bc:	fee78fa3          	sb	a4,-1(a5)
 3c0:	fec598e3          	bne	a1,a2,3b0 <memcpy+0x20>
 3c4:	00008067          	ret
 3c8:	fed57ee3          	bgeu	a0,a3,3c4 <memcpy+0x34>
 3cc:	00050793          	mv	a5,a0
 3d0:	0005a703          	lw	a4,0(a1)
 3d4:	00478793          	addi	a5,a5,4
 3d8:	00458593          	addi	a1,a1,4
 3dc:	fee7ae23          	sw	a4,-4(a5)
 3e0:	fed7e8e3          	bltu	a5,a3,3d0 <memcpy+0x40>
 3e4:	00008067          	ret
 3e8:	00008067          	ret

000003ec <memset>:
 3ec:	ff010113          	addi	sp,sp,-16
 3f0:	00c567b3          	or	a5,a0,a2
 3f4:	00812423          	sw	s0,8(sp)
 3f8:	00112623          	sw	ra,12(sp)
 3fc:	0037f793          	andi	a5,a5,3
 400:	00050413          	mv	s0,a0
 404:	00c50733          	add	a4,a0,a2
 408:	02078263          	beqz	a5,42c <memset+0x40>
 40c:	00e57663          	bgeu	a0,a4,418 <memset+0x2c>
 410:	0ff5f593          	zext.b	a1,a1
 414:	fd9ff0ef          	jal	ra,3ec <memset>
 418:	00c12083          	lw	ra,12(sp)
 41c:	00040513          	mv	a0,s0
 420:	00812403          	lw	s0,8(sp)
 424:	01010113          	addi	sp,sp,16
 428:	00008067          	ret
 42c:	0ff5f593          	zext.b	a1,a1
 430:	00859693          	slli	a3,a1,0x8
 434:	00b686b3          	add	a3,a3,a1
 438:	01069793          	slli	a5,a3,0x10
 43c:	00f686b3          	add	a3,a3,a5
 440:	fce57ce3          	bgeu	a0,a4,418 <memset+0x2c>
 444:	00050793          	mv	a5,a0
 448:	00478793          	addi	a5,a5,4
 44c:	fed7ae23          	sw	a3,-4(a5)
 450:	fee7ece3          	bltu	a5,a4,448 <memset+0x5c>
 454:	00c12083          	lw	ra,12(sp)
 458:	00040513          	mv	a0,s0
 45c:	00812403          	lw	s0,8(sp)
 460:	01010113          	addi	sp,sp,16
 464:	00008067          	ret

00000468 <strlen>:
 468:	00054783          	lbu	a5,0(a0)
 46c:	00078e63          	beqz	a5,488 <strlen+0x20>
 470:	00050793          	mv	a5,a0
 474:	0017c703          	lbu	a4,1(a5)
 478:	00178793          	addi	a5,a5,1
 47c:	fe071ce3          	bnez	a4,474 <strlen+0xc>
 480:	40a78533          	sub	a0,a5,a0
 484:	00008067          	ret
 488:	00000513          	li	a0,0
 48c:	00008067          	ret

00000490 <strnlen>:
 490:	00b506b3          	add	a3,a0,a1
 494:	00050793          	mv	a5,a0
 498:	00059863          	bnez	a1,4a8 <strnlen+0x18>
 49c:	0240006f          	j	4c0 <strnlen+0x30>
 4a0:	00178793          	addi	a5,a5,1
 4a4:	00f68a63          	beq	a3,a5,4b8 <strnlen+0x28>
 4a8:	0007c703          	lbu	a4,0(a5)
 4ac:	fe071ae3          	bnez	a4,4a0 <strnlen+0x10>
 4b0:	40a78533          	sub	a0,a5,a0
 4b4:	00008067          	ret
 4b8:	40a68533          	sub	a0,a3,a0
 4bc:	00008067          	ret
 4c0:	00000513          	li	a0,0
 4c4:	00008067          	ret

000004c8 <strcmp>:
 4c8:	00054783          	lbu	a5,0(a0)
 4cc:	00158593          	addi	a1,a1,1
 4d0:	00150513          	addi	a0,a0,1
 4d4:	fff5c703          	lbu	a4,-1(a1)
 4d8:	00078863          	beqz	a5,4e8 <strcmp+0x20>
 4dc:	fee786e3          	beq	a5,a4,4c8 <strcmp>
 4e0:	40e78533          	sub	a0,a5,a4
 4e4:	00008067          	ret
 4e8:	00000793          	li	a5,0
 4ec:	ff5ff06f          	j	4e0 <strcmp+0x18>

000004f0 <strcpy>:
 4f0:	00050793          	mv	a5,a0
 4f4:	0005c703          	lbu	a4,0(a1)
 4f8:	00178793          	addi	a5,a5,1
 4fc:	00158593          	addi	a1,a1,1
 500:	fee78fa3          	sb	a4,-1(a5)
 504:	fe0718e3          	bnez	a4,4f4 <strcpy+0x4>
 508:	00008067          	ret

0000050c <atol>:
 50c:	00054703          	lbu	a4,0(a0)
 510:	02000693          	li	a3,32
 514:	00050793          	mv	a5,a0
 518:	00d71863          	bne	a4,a3,528 <atol+0x1c>
 51c:	0017c703          	lbu	a4,1(a5)
 520:	00178793          	addi	a5,a5,1
 524:	fed70ce3          	beq	a4,a3,51c <atol+0x10>
 528:	02d00693          	li	a3,45
 52c:	06d70063          	beq	a4,a3,58c <atol+0x80>
 530:	02b00693          	li	a3,43
 534:	04d70063          	beq	a4,a3,574 <atol+0x68>
 538:	0007c683          	lbu	a3,0(a5)
 53c:	00000593          	li	a1,0
 540:	04068263          	beqz	a3,584 <atol+0x78>
 544:	00000513          	li	a0,0
 548:	00178793          	addi	a5,a5,1
 54c:	00251713          	slli	a4,a0,0x2
 550:	fd068613          	addi	a2,a3,-48
 554:	0007c683          	lbu	a3,0(a5)
 558:	00a70733          	add	a4,a4,a0
 55c:	00171713          	slli	a4,a4,0x1
 560:	00e60533          	add	a0,a2,a4
 564:	fe0692e3          	bnez	a3,548 <atol+0x3c>
 568:	02058063          	beqz	a1,588 <atol+0x7c>
 56c:	40a00533          	neg	a0,a0
 570:	00008067          	ret
 574:	0017c683          	lbu	a3,1(a5)
 578:	00000593          	li	a1,0
 57c:	00178793          	addi	a5,a5,1
 580:	fc0692e3          	bnez	a3,544 <atol+0x38>
 584:	00000513          	li	a0,0
 588:	00008067          	ret
 58c:	0017c683          	lbu	a3,1(a5)
 590:	00100593          	li	a1,1
 594:	00178793          	addi	a5,a5,1
 598:	fa0696e3          	bnez	a3,544 <atol+0x38>
 59c:	00000513          	li	a0,0
 5a0:	fe9ff06f          	j	588 <atol+0x7c>

Disassembly of section .text.startup:

000005a4 <main>:
 5a4:	ff010113          	addi	sp,sp,-16
 5a8:	55aa57b7          	lui	a5,0x55aa5
 5ac:	00812423          	sw	s0,8(sp)
 5b0:	00112623          	sw	ra,12(sp)
 5b4:	80000437          	lui	s0,0x80000
 5b8:	5aa78793          	addi	a5,a5,1450 # 55aa55aa <__global_pointer$+0x55aa4386>
 5bc:	00f42023          	sw	a5,0(s0) # 80000000 <__global_pointer$+0x7fffeddc>
 5c0:	00900593          	li	a1,9
 5c4:	00000517          	auipc	a0,0x0
 5c8:	41450513          	addi	a0,a0,1044 # 9d8 <INPUT>
 5cc:	cd9ff0ef          	jal	ra,2a4 <crc32>
 5d0:	00a42023          	sw	a0,0(s0)
 5d4:	0000006f          	j	5d4 <main+0x30>
