
median.riscv:     file format elf32-littleriscv

Sections:
Idx Name          Size      VMA       LMA       File off  Algn
  0 .text.isr     00000104  00000080  00000080  00000080  2**0
                  CONTENTS, ALLOC, LOAD, READONLY, CODE
  1 .text.init    000000a4  00000200  00000200  00000200  2**0
                  CONTENTS, ALLOC, LOAD, READONLY, CODE
  2 .text         000002fc  000002a4  000002a4  000002a4  2**2
                  CONTENTS, ALLOC, LOAD, READONLY, CODE
  3 .text.startup 00000034  000005a0  000005a0  000005a0  2**2
                  CONTENTS, ALLOC, LOAD, READONLY, CODE
  4 .data         00000668  000005d4  000005d4  000005d4  2**2
                  CONTENTS, ALLOC, LOAD, DATA
  5 .comment      0000001b  00000000  00000000  00000c3c  2**0
                  CONTENTS, READONLY
  6 .riscv.attributes 0000002e  00000000  00000000  00000c57  2**0
                  CONTENTS, READONLY

Disassembly of section .text.isr:

00000080 <isr_entry>:
  80:	00112023          	sw	ra,0(sp)
  84:	fe312e23          	sw	gp,-4(sp)
  88:	fe412c23          	sw	tp,-8(sp)
  8c:	fe512a23          	sw	t0,-12(sp)
  90:	fe612823          	sw	t1,-16(sp)
  94:	fe712623          	sw	t2,-20(sp)
  98:	fe812423          	sw	s0,-24(sp)
  9c:	fe912223          	sw	s1,-28(sp)
  a0:	fea12023          	sw	a0,-32(sp)
  a4:	fcb12e23          	sw	a1,-36(sp)
  a8:	fcc12c23          	sw	a2,-40(sp)
  ac:	fcd12a23          	sw	a3,-44(sp)
  b0:	fce12823          	sw	a4,-48(sp)
  b4:	fcf12623          	sw	a5,-52(sp)
  b8:	fd012423          	sw	a6,-56(sp)
  bc:	fd112223          	sw	a7,-60(sp)
  c0:	fd212023          	sw	s2,-64(sp)
  c4:	fb312e23          	sw	s3,-68(sp)
  c8:	fb412c23          	sw	s4,-72(sp)
  cc:	fb512a23          	sw	s5,-76(sp)
  d0:	fb612823          	sw	s6,-80(sp)
  d4:	fb712623          	sw	s7,-84(sp)
  d8:	fb812423          	sw	s8,-88(sp)
  dc:	fb912223          	sw	s9,-92(sp)
  e0:	fba12023          	sw	s10,-96(sp)
  e4:	f9b12e23          	sw	s11,-100(sp)
  e8:	f9c12c23          	sw	t3,-104(sp)
  ec:	f9d12a23          	sw	t4,-108(sp)
  f0:	f9e12823          	sw	t5,-112(sp)
  f4:	f9f12623          	sw	t6,-116(sp)
  f8:	f8010113          	addi	sp,sp,-128
  fc:	00002573          	csrr	a0,ustatus
 100:	234000ef          	jal	ra,334 <__int_handler>
 104:	08010113          	addi	sp,sp,128
 108:	00012083          	lw	ra,0(sp)
 10c:	ffc12183          	lw	gp,-4(sp)
 110:	ff812203          	lw	tp,-8(sp)
 114:	ff412283          	lw	t0,-12(sp)
 118:	ff012303          	lw	t1,-16(sp)
 11c:	fec12383          	lw	t2,-20(sp)
 120:	fe812403          	lw	s0,-24(sp)
 124:	fe412483          	lw	s1,-28(sp)
 128:	fe012503          	lw	a0,-32(sp)
 12c:	fdc12583          	lw	a1,-36(sp)
 130:	fd812603          	lw	a2,-40(sp)
 134:	fd412683          	lw	a3,-44(sp)
 138:	fd012703          	lw	a4,-48(sp)
 13c:	fcc12783          	lw	a5,-52(sp)
 140:	fc812803          	lw	a6,-56(sp)
 144:	fc412883          	lw	a7,-60(sp)
 148:	fc012903          	lw	s2,-64(sp)
 14c:	fbc12983          	lw	s3,-68(sp)
 150:	fb812a03          	lw	s4,-72(sp)
 154:	fb412a83          	lw	s5,-76(sp)
 158:	fb012b03          	lw	s6,-80(sp)
 15c:	fac12b83          	lw	s7,-84(sp)
 160:	fa812c03          	lw	s8,-88(sp)
 164:	fa412c83          	lw	s9,-92(sp)
 168:	fa012d03          	lw	s10,-96(sp)
 16c:	f9c12d83          	lw	s11,-100(sp)
 170:	f9812e03          	lw	t3,-104(sp)
 174:	f9412e83          	lw	t4,-108(sp)
 178:	f9012f03          	lw	t5,-112(sp)
 17c:	f8c12f83          	lw	t6,-116(sp)
 180:	30200073          	mret

Disassembly of section .text.init:

00000200 <_start>:
 200:	00000093          	li	ra,0
 204:	00000113          	li	sp,0
 208:	00000193          	li	gp,0
 20c:	00000213          	li	tp,0
 210:	00000293          	li	t0,0
 214:	00000313          	li	t1,0
 218:	00000393          	li	t2,0
 21c:	00000413          	li	s0,0
 220:	00000493          	li	s1,0
 224:	00000513          	li	a0,0
 228:	00000593          	li	a1,0
 22c:	00000613          	li	a2,0
 230:	00000693          	li	a3,0
 234:	00000713          	li	a4,0
 238:	00000793          	li	a5,0
 23c:	00000813          	li	a6,0
 240:	00000893          	li	a7,0
 244:	00000913          	li	s2,0
 248:	00000993          	li	s3,0
 24c:	00000a13          	li	s4,0
 250:	00000a93          	li	s5,0
 254:	00000b13          	li	s6,0
 258:	00000b93          	li	s7,0
 25c:	00000c13          	li	s8,0
 260:	00000c93          	li	s9,0
 264:	00000d13          	li	s10,0
 268:	00000d93          	li	s11,0
 26c:	00000e13          	li	t3,0
 270:	00000e93          	li	t4,0
 274:	00000f13          	li	t5,0
 278:	00000f93          	li	t6,0
 27c:	00001197          	auipc	gp,0x1
 280:	1c018193          	addi	gp,gp,448 # 143c <__global_pointer$>
 284:	83f18213          	addi	tp,gp,-1985 # c7b <_end+0x3f>
 288:	fc027213          	andi	tp,tp,-64
 28c:	00e51613          	slli	a2,a0,0xe
 290:	00c20233          	add	tp,tp,a2
 294:	00150113          	addi	sp,a0,1
 298:	00e11113          	slli	sp,sp,0xe
 29c:	00410133          	add	sp,sp,tp
 2a0:	3000006f          	j	5a0 <main>

Disassembly of section .text:

000002a4 <median>:
 2a4:	00251793          	slli	a5,a0,0x2
 2a8:	ffc78793          	addi	a5,a5,-4
 2ac:	00f60733          	add	a4,a2,a5
 2b0:	00062023          	sw	zero,0(a2)
 2b4:	00072023          	sw	zero,0(a4)
 2b8:	00200713          	li	a4,2
 2bc:	02a75e63          	bge	a4,a0,2f8 <median+0x54>
 2c0:	00b78533          	add	a0,a5,a1
 2c4:	00460613          	addi	a2,a2,4
 2c8:	ffc50513          	addi	a0,a0,-4
 2cc:	0045a783          	lw	a5,4(a1)
 2d0:	0005a703          	lw	a4,0(a1)
 2d4:	0085a683          	lw	a3,8(a1)
 2d8:	02f75e63          	bge	a4,a5,314 <median+0x70>
 2dc:	00d7c663          	blt	a5,a3,2e8 <median+0x44>
 2e0:	00068793          	mv	a5,a3
 2e4:	00e6cc63          	blt	a3,a4,2fc <median+0x58>
 2e8:	00f62023          	sw	a5,0(a2)
 2ec:	00458593          	addi	a1,a1,4
 2f0:	00460613          	addi	a2,a2,4
 2f4:	fca59ce3          	bne	a1,a0,2cc <median+0x28>
 2f8:	00008067          	ret
 2fc:	00070793          	mv	a5,a4
 300:	00f62023          	sw	a5,0(a2)
 304:	00458593          	addi	a1,a1,4
 308:	00460613          	addi	a2,a2,4
 30c:	fca590e3          	bne	a1,a0,2cc <median+0x28>
 310:	fe9ff06f          	j	2f8 <median+0x54>
 314:	fed744e3          	blt	a4,a3,2fc <median+0x58>
 318:	fcd7d8e3          	bge	a5,a3,2e8 <median+0x44>
 31c:	00068793          	mv	a5,a3
 320:	00f62023          	sw	a5,0(a2)
 324:	00458593          	addi	a1,a1,4
 328:	00460613          	addi	a2,a2,4
 32c:	faa590e3          	bne	a1,a0,2cc <median+0x28>
 330:	fc9ff06f          	j	2f8 <median+0x54>

00000334 <__int_handler>:
 334:	00251693          	slli	a3,a0,0x2
 338:	00001717          	auipc	a4,0x1
 33c:	8dc70713          	addi	a4,a4,-1828 # c14 <isr>
 340:	00d70733          	add	a4,a4,a3
 344:	00072703          	lw	a4,0(a4)
 348:	fff00693          	li	a3,-1
 34c:	00d70863          	beq	a4,a3,35c <__int_handler+0x28>
 350:	00900693          	li	a3,9
 354:	00a6c463          	blt	a3,a0,35c <__int_handler+0x28>
 358:	00070067          	jr	a4
 35c:	00008067          	ret

00000360 <ConnectISR>:
 360:	00900793          	li	a5,9
 364:	02a7c063          	blt	a5,a0,384 <ConnectISR+0x24>
 368:	00251513          	slli	a0,a0,0x2
 36c:	00001797          	auipc	a5,0x1
 370:	8a878793          	addi	a5,a5,-1880 # c14 <isr>
 374:	00a787b3          	add	a5,a5,a0
 378:	00b7a023          	sw	a1,0(a5)
 37c:	00000513          	li	a0,0
 380:	00008067          	ret
 384:	fff00513          	li	a0,-1
 388:	00008067          	ret

0000038c <memcpy>:
 38c:	00b567b3          	or	a5,a0,a1
 390:	00c7e7b3          	or	a5,a5,a2
 394:	0037f793          	andi	a5,a5,3
 398:	00c506b3          	add	a3,a0,a2
 39c:	02078463          	beqz	a5,3c4 <memcpy+0x38>
 3a0:	00c58633          	add	a2,a1,a2
 3a4:	00050793          	mv	a5,a0
 3a8:	02d57e63          	bgeu	a0,a3,3e4 <memcpy+0x58>
 3ac:	0005c703          	lbu	a4,0(a1)
 3b0:	00158593          	addi	a1,a1,1
 3b4:	00178793          	addi	a5,a5,1
 3b8:	fee78fa3          	sb	a4,-1(a5)
 3bc:	fec598e3          	bne	a1,a2,3ac <memcpy+0x20>
 3c0:	00008067          	ret
 3c4:	fed57ee3          	bgeu	a0,a3,3c0 <memcpy+0x34>
 3c8:	00050793          	mv	a5,a0
 3cc:	0005a703          	lw	a4,0(a1)
 3d0:	00478793          	addi	a5,a5,4
 3d4:	00458593          	addi	a1,a1,4
 3d8:	fee7ae23          	sw	a4,-4(a5)
 3dc:	fed7e8e3          	bltu	a5,a3,3cc <memcpy+0x40>
 3e0:	00008067          	ret
 3e4:	00008067          	ret

000003e8 <memset>:
 3e8:	ff010113          	addi	sp,sp,-16
 3ec:	00c567b3          	or	a5,a0,a2
 3f0:	00812423          	sw	s0,8(sp)
 3f4:	00112623          	sw	ra,12(sp)
 3f8:	0037f793          	andi	a5,a5,3
 3fc:	00050413          	mv	s0,a0
 400:	00c50733          	add	a4,a0,a2
 404:	02078263          	beqz	a5,428 <memset+0x40>
 408:	00e57663          	bgeu	a0,a4,414 <memset+0x2c>
 40c:	0ff5f593          	zext.b	a1,a1
 410:	fd9ff0ef          	jal	ra,3e8 <memset>
 414:	00c12083          	lw	ra,12(sp)
 418:	00040513          	mv	a0,s0
 41c:	00812403          	lw	s0,8(sp)
 420:	01010113          	addi	sp,sp,16
 424:	00008067          	ret
 428:	0ff5f593          	zext.b	a1,a1
 42c:	00859693          	slli	a3,a1,0x8
 430:	00b686b3          	add	a3,a3,a1
 434:	01069793          	slli	a5,a3,0x10
 438:	00f686b3          	add	a3,a3,a5
 43c:	fce57ce3          	bgeu	a0,a4,414 <memset+0x2c>
 440:	00050793          	mv	a5,a0
 444:	00478793          	addi	a5,a5,4
 448:	fed7ae23          	sw	a3,-4(a5)
 44c:	fee7ece3          	bltu	a5,a4,444 <memset+0x5c>
 450:	00c12083          	lw	ra,12(sp)
 454:	00040513          	mv	a0,s0
 458:	00812403          	lw	s0,8(sp)
 45c:	01010113          	addi	sp,sp,16
 460:	00008067          	ret

00000464 <strlen>:
 464:	00054783          	lbu	a5,0(a0)
 468:	00078e63          	beqz	a5,484 <strlen+0x20>
 46c:	00050793          	mv	a5,a0
 470:	0017c703          	lbu	a4,1(a5)
 474:	00178793          	addi	a5,a5,1
 478:	fe071ce3          	bnez	a4,470 <strlen+0xc>
 47c:	40a78533          	sub	a0,a5,a0
 480:	00008067          	ret
 484:	00000513          	li	a0,0
 488:	00008067          	ret

0000048c <strnlen>:
 48c:	00b506b3          	add	a3,a0,a1
 490:	00050793          	mv	a5,a0
 494:	00059863          	bnez	a1,4a4 <strnlen+0x18>
 498:	0240006f          	j	4bc <strnlen+0x30>
 49c:	00178793          	addi	a5,a5,1
 4a0:	00f68a63          	beq	a3,a5,4b4 <strnlen+0x28>
 4a4:	0007c703          	lbu	a4,0(a5)
 4a8:	fe071ae3          	bnez	a4,49c <strnlen+0x10>
 4ac:	40a78533          	sub	a0,a5,a0
 4b0:	00008067          	ret
 4b4:	40a68533          	sub	a0,a3,a0
 4b8:	00008067          	ret
 4bc:	00000513          	li	a0,0
 4c0:	00008067          	ret

000004c4 <strcmp>:
 4c4:	00054783          	lbu	a5,0(a0)
 4c8:	00158593          	addi	a1,a1,1
 4cc:	00150513          	addi	a0,a0,1
 4d0:	fff5c703          	lbu	a4,-1(a1)
 4d4:	00078863          	beqz	a5,4e4 <strcmp+0x20>
 4d8:	fee786e3          	beq	a5,a4,4c4 <strcmp>
 4dc:	40e78533          	sub	a0,a5,a4
 4e0:	00008067          	ret
 4e4:	00000793          	li	a5,0
 4e8:	ff5ff06f          	j	4dc <strcmp+0x18>

000004ec <strcpy>:
 4ec:	00050793          	mv	a5,a0
 4f0:	0005c703          	lbu	a4,0(a1)
 4f4:	00178793          	addi	a5,a5,1
 4f8:	00158593          	addi	a1,a1,1
 4fc:	fee78fa3          	sb	a4,-1(a5)
 500:	fe0718e3          	bnez	a4,4f0 <strcpy+0x4>
 504:	00008067          	ret

00000508 <atol>:
 508:	00054703          	lbu	a4,0(a0)
 50c:	02000693          	li	a3,32
 510:	00050793          	mv	a5,a0
 514:	00d71863          	bne	a4,a3,524 <atol+0x1c>
 518:	0017c703          	lbu	a4,1(a5)
 51c:	00178793          	addi	a5,a5,1
 520:	fed70ce3          	beq	a4,a3,518 <atol+0x10>
 524:	02d00693          	li	a3,45
 528:	06d70063          	beq	a4,a3,588 <atol+0x80>
 52c:	02b00693          	li	a3,43
 530:	04d70063          	beq	a4,a3,570 <atol+0x68>
 534:	0007c683          	lbu	a3,0(a5)
 538:	00000593          	li	a1,0
 53c:	04068263          	beqz	a3,580 <atol+0x78>
 540:	00000513          	li	a0,0
 544:	00178793          	addi	a5,a5,1
 548:	00251713          	slli	a4,a0,0x2
 54c:	fd068613          	addi	a2,a3,-48
 550:	0007c683          	lbu	a3,0(a5)
 554:	00a70733          	add	a4,a4,a0
 558:	00171713          	slli	a4,a4,0x1
 55c:	00e60533          	add	a0,a2,a4
 560:	fe0692e3          	bnez	a3,544 <atol+0x3c>
 564:	02058063          	beqz	a1,584 <atol+0x7c>
 568:	40a00533          	neg	a0,a0
 56c:	00008067          	ret
 570:	0017c683          	lbu	a3,1(a5)
 574:	00000593          	li	a1,0
 578:	00178793          	addi	a5,a5,1
 57c:	fc0692e3          	bnez	a3,540 <atol+0x38>
 580:	00000513          	li	a0,0
 584:	00008067          	ret
 588:	0017c683          	lbu	a3,1(a5)
 58c:	00100593          	li	a1,1
 590:	00178793          	addi	a5,a5,1
 594:	fa0696e3          	bnez	a3,540 <atol+0x38>
 598:	00000513          	li	a0,0
 59c:	fe9ff06f          	j	584 <atol+0x7c>

Disassembly of section .text.startup:

000005a0 <main>:
 5a0:	ff010113          	addi	sp,sp,-16
 5a4:	00812423          	sw	s0,8(sp)
 5a8:	00112623          	sw	ra,12(sp)
 5ac:	80000437          	lui	s0,0x80000
 5b0:	00042023          	sw	zero,0(s0) # 80000000 <__global_pointer$+0x7fffebc4>
 5b4:	00006637          	lui	a2,0x6
 5b8:	5d400593          	li	a1,1492
 5bc:	19000513          	li	a0,400
 5c0:	ce5ff0ef          	jal	ra,2a4 <median>
 5c4:	55aa57b7          	lui	a5,0x55aa5
 5c8:	5aa78793          	addi	a5,a5,1450 # 55aa55aa <__global_pointer$+0x55aa416e>
 5cc:	00f42023          	sw	a5,0(s0)
 5d0:	0000006f          	j	5d0 <main+0x30>

Disassembly of section .data:

000005d4 <input_data>:
 5d4:	0029                	.2byte	0x29
 5d6:	0000                	.2byte	0x0
 5d8:	01c6                	.2byte	0x1c6
 5da:	0000                	.2byte	0x0
 5dc:	0341                	.2byte	0x341
 5de:	0000                	.2byte	0x0
 5e0:	0000014f          	.4byte	0x14f
 5e4:	0234                	.2byte	0x234
 5e6:	0000                	.2byte	0x0
 5e8:	0001                	.2byte	0x1
 5ea:	0000                	.2byte	0x0
 5ec:	000000bb          	.4byte	0xbb
 5f0:	03dd                	.2byte	0x3dd
 5f2:	0000                	.2byte	0x0
 5f4:	02ed                	.2byte	0x2ed
 5f6:	0000                	.2byte	0x0
 5f8:	016d                	.2byte	0x16d
 5fa:	0000                	.2byte	0x0
 5fc:	015e                	.2byte	0x15e
 5fe:	0000                	.2byte	0x0
 600:	023c                	.2byte	0x23c
 602:	0000                	.2byte	0x0
 604:	0084                	.2byte	0x84
 606:	0000                	.2byte	0x0
 608:	0040                	.2byte	0x40
 60a:	0000                	.2byte	0x0
 60c:	03b5                	.2byte	0x3b5
 60e:	0000                	.2byte	0x0
 610:	0099                	.2byte	0x99
 612:	0000                	.2byte	0x0
 614:	0248                	.2byte	0x248
 616:	0000                	.2byte	0x0
 618:	00d8                	.2byte	0xd8
 61a:	0000                	.2byte	0x0
 61c:	0325                	.2byte	0x325
 61e:	0000                	.2byte	0x0
 620:	008c                	.2byte	0x8c
 622:	0000                	.2byte	0x0
 624:	026d                	.2byte	0x26d
 626:	0000                	.2byte	0x0
 628:	00d2                	.2byte	0xd2
 62a:	0000                	.2byte	0x0
 62c:	0006                	.2byte	0x6
 62e:	0000                	.2byte	0x0
 630:	023c                	.2byte	0x23c
 632:	0000                	.2byte	0x0
 634:	000003a3          	sb	zero,7(zero) # 7 <isr_entry-0x79>
 638:	00000153          	.4byte	0x153
 63c:	037a                	.2byte	0x37a
 63e:	0000                	.2byte	0x0
 640:	0251                	.2byte	0x251
 642:	0000                	.2byte	0x0
 644:	0188                	.2byte	0x188
 646:	0000                	.2byte	0x0
 648:	0382                	.2byte	0x382
 64a:	0000                	.2byte	0x0
 64c:	02b6                	.2byte	0x2b6
 64e:	0000                	.2byte	0x0
 650:	00e4                	.2byte	0xe4
 652:	0000                	.2byte	0x0
 654:	03c1                	.2byte	0x3c1
 656:	0000                	.2byte	0x0
 658:	000c                	.2byte	0xc
 65a:	0000                	.2byte	0x0
 65c:	006e                	.2byte	0x6e
 65e:	0000                	.2byte	0x0
 660:	00000373          	.4byte	0x373
 664:	0074                	.2byte	0x74
 666:	0000                	.2byte	0x0
 668:	02ee                	.2byte	0x2ee
 66a:	0000                	.2byte	0x0
 66c:	0128                	.2byte	0x128
 66e:	0000                	.2byte	0x0
 670:	0286                	.2byte	0x286
 672:	0000                	.2byte	0x0
 674:	01aa                	.2byte	0x1aa
 676:	0000                	.2byte	0x0
 678:	01f4                	.2byte	0x1f4
 67a:	0000                	.2byte	0x0
 67c:	013a                	.2byte	0x13a
 67e:	0000                	.2byte	0x0
 680:	01b4                	.2byte	0x1b4
 682:	0000                	.2byte	0x0
 684:	00000293          	li	t0,0
 688:	02bd                	.2byte	0x2bd
 68a:	0000                	.2byte	0x0
 68c:	0306                	.2byte	0x306
 68e:	0000                	.2byte	0x0
 690:	032c                	.2byte	0x32c
 692:	0000                	.2byte	0x0
 694:	0000013f 000003d5 	.8byte	0x3d50000013f
 69c:	02a6                	.2byte	0x2a6
 69e:	0000                	.2byte	0x0
 6a0:	0096                	.2byte	0x96
 6a2:	0000                	.2byte	0x0
 6a4:	0000036b          	.4byte	0x36b
 6a8:	02b8                	.2byte	0x2b8
 6aa:	0000                	.2byte	0x0
 6ac:	0178                	.2byte	0x178
 6ae:	0000                	.2byte	0x0
 6b0:	0234                	.2byte	0x234
 6b2:	0000                	.2byte	0x0
 6b4:	01da                	.2byte	0x1da
 6b6:	0000                	.2byte	0x0
 6b8:	0110                	.2byte	0x110
 6ba:	0000                	.2byte	0x0
 6bc:	03aa                	.2byte	0x3aa
 6be:	0000                	.2byte	0x0
 6c0:	0102                	.2byte	0x102
 6c2:	0000                	.2byte	0x0
 6c4:	0000021b          	.4byte	0x21b
 6c8:	00000287          	.4byte	0x287
 6cc:	0239                	.2byte	0x239
 6ce:	0000                	.2byte	0x0
 6d0:	01fd                	.2byte	0x1fd
 6d2:	0000                	.2byte	0x0
 6d4:	000000cb          	.4byte	0xcb
 6d8:	0058                	.2byte	0x58
 6da:	0000                	.2byte	0x0
 6dc:	0118                	.2byte	0x118
 6de:	0000                	.2byte	0x0
 6e0:	000002bf 000002f7 	.8byte	0x2f7000002bf
 6e8:	029d                	.2byte	0x29d
 6ea:	0000                	.2byte	0x0
 6ec:	025e                	.2byte	0x25e
 6ee:	0000                	.2byte	0x0
 6f0:	00000177          	.4byte	0x177
 6f4:	01ff                	.2byte	0x1ff
 6f6:	0000                	.2byte	0x0
 6f8:	00000227          	.4byte	0x227
 6fc:	0291                	.2byte	0x291
 6fe:	0000                	.2byte	0x0
 700:	03a8                	.2byte	0x3a8
 702:	0000                	.2byte	0x0
 704:	000000c3          	.4byte	0xc3
 708:	0250                	.2byte	0x250
 70a:	0000                	.2byte	0x0
 70c:	0051                	.2byte	0x51
 70e:	0000                	.2byte	0x0
 710:	0239                	.2byte	0x239
 712:	0000                	.2byte	0x0
 714:	0000010b          	.4byte	0x10b
 718:	03b8                	.2byte	0x3b8
 71a:	0000                	.2byte	0x0
 71c:	00e5                	.2byte	0xe5
 71e:	0000                	.2byte	0x0
 720:	0320                	.2byte	0x320
 722:	0000                	.2byte	0x0
 724:	0151                	.2byte	0x151
 726:	0000                	.2byte	0x0
 728:	0248                	.2byte	0x248
 72a:	0000                	.2byte	0x0
 72c:	03b0                	.2byte	0x3b0
 72e:	0000                	.2byte	0x0
 730:	00000283          	lb	t0,0(zero) # 0 <isr_entry-0x80>
 734:	0386                	.2byte	0x386
 736:	0000                	.2byte	0x0
 738:	0170                	.2byte	0x170
 73a:	0000                	.2byte	0x0
 73c:	00f1                	.2byte	0xf1
 73e:	0000                	.2byte	0x0
 740:	01e9                	.2byte	0x1e9
 742:	0000                	.2byte	0x0
 744:	0391                	.2byte	0x391
 746:	0000                	.2byte	0x0
 748:	0148                	.2byte	0x148
 74a:	0000                	.2byte	0x0
 74c:	033a                	.2byte	0x33a
 74e:	0000                	.2byte	0x0
 750:	0139                	.2byte	0x139
 752:	0000                	.2byte	0x0
 754:	03a5                	.2byte	0x3a5
 756:	0000                	.2byte	0x0
 758:	0250                	.2byte	0x250
 75a:	0000                	.2byte	0x0
 75c:	03d9                	.2byte	0x3d9
 75e:	0000                	.2byte	0x0
 760:	0184                	.2byte	0x184
 762:	0000                	.2byte	0x0
 764:	000000c3          	.4byte	0xc3
 768:	021f 0000 03c0      	.byte	0x1f, 0x02, 0x00, 0x00, 0xc0, 0x03
 76e:	0000                	.2byte	0x0
 770:	0289                	.2byte	0x289
 772:	0000                	.2byte	0x0
 774:	0236                	.2byte	0x236
 776:	0000                	.2byte	0x0
 778:	000003d3          	.4byte	0x3d3
 77c:	015e                	.2byte	0x15e
 77e:	0000                	.2byte	0x0
 780:	03e5                	.2byte	0x3e5
 782:	0000                	.2byte	0x0
 784:	0289                	.2byte	0x289
 786:	0000                	.2byte	0x0
 788:	032e                	.2byte	0x32e
 78a:	0000                	.2byte	0x0
 78c:	0291                	.2byte	0x291
 78e:	0000                	.2byte	0x0
 790:	0000004f          	.4byte	0x4f
 794:	00b5                	.2byte	0xb5
 796:	0000                	.2byte	0x0
 798:	00d0                	.2byte	0xd0
 79a:	0000                	.2byte	0x0
 79c:	0000006f          	j	79c <input_data+0x1c8>
 7a0:	03e6                	.2byte	0x3e6
 7a2:	0000                	.2byte	0x0
 7a4:	0000035b          	.4byte	0x35b
 7a8:	0275                	.2byte	0x275
 7aa:	0000                	.2byte	0x0
 7ac:	0041                	.2byte	0x41
 7ae:	0000                	.2byte	0x0
 7b0:	0000034f          	.4byte	0x34f
 7b4:	0120                	.2byte	0x120
 7b6:	0000                	.2byte	0x0
 7b8:	02c0                	.2byte	0x2c0
 7ba:	0000                	.2byte	0x0
 7bc:	015d                	.2byte	0x15d
 7be:	0000                	.2byte	0x0
 7c0:	03e5                	.2byte	0x3e5
 7c2:	0000                	.2byte	0x0
 7c4:	008d                	.2byte	0x8d
 7c6:	0000                	.2byte	0x0
 7c8:	00fd                	.2byte	0xfd
 7ca:	0000                	.2byte	0x0
 7cc:	0389                	.2byte	0x389
 7ce:	0000                	.2byte	0x0
 7d0:	000002cb          	.4byte	0x2cb
 7d4:	0376                	.2byte	0x376
 7d6:	0000                	.2byte	0x0
 7d8:	01ae                	.2byte	0x1ae
 7da:	0000                	.2byte	0x0
 7dc:	0108                	.2byte	0x108
 7de:	0000                	.2byte	0x0
 7e0:	019f 0000 0240      	.byte	0x9f, 0x01, 0x00, 0x00, 0x40, 0x02
 7e6:	0000                	.2byte	0x0
 7e8:	021a                	.2byte	0x21a
 7ea:	0000                	.2byte	0x0
 7ec:	000003d3          	.4byte	0x3d3
 7f0:	02bc                	.2byte	0x2bc
 7f2:	0000                	.2byte	0x0
 7f4:	02f9                	.2byte	0x2f9
 7f6:	0000                	.2byte	0x0
 7f8:	0004                	.2byte	0x4
 7fa:	0000                	.2byte	0x0
 7fc:	00f1                	.2byte	0xf1
 7fe:	0000                	.2byte	0x0
 800:	01ee                	.2byte	0x1ee
 802:	0000                	.2byte	0x0
 804:	01de                	.2byte	0x1de
 806:	0000                	.2byte	0x0
 808:	0064                	.2byte	0x64
 80a:	0000                	.2byte	0x0
 80c:	000001f3          	.4byte	0x1f3
 810:	0360                	.2byte	0x360
 812:	0000                	.2byte	0x0
 814:	00000193          	li	gp,0
 818:	02b5                	.2byte	0x2b5
 81a:	0000                	.2byte	0x0
 81c:	00de                	.2byte	0xde
 81e:	0000                	.2byte	0x0
 820:	01a0                	.2byte	0x1a0
 822:	0000                	.2byte	0x0
 824:	01bc                	.2byte	0x1bc
 826:	0000                	.2byte	0x0
 828:	0128                	.2byte	0x128
 82a:	0000                	.2byte	0x0
 82c:	02d1                	.2byte	0x2d1
 82e:	0000                	.2byte	0x0
 830:	011d                	.2byte	0x11d
 832:	0000                	.2byte	0x0
 834:	02a4                	.2byte	0x2a4
 836:	0000                	.2byte	0x0
 838:	026c                	.2byte	0x26c
 83a:	0000                	.2byte	0x0
 83c:	013d                	.2byte	0x13d
 83e:	0000                	.2byte	0x0
 840:	004e                	.2byte	0x4e
 842:	0000                	.2byte	0x0
 844:	00e0                	.2byte	0xe0
 846:	0000                	.2byte	0x0
 848:	015f 0000 03a9      	.byte	0x5f, 0x01, 0x00, 0x00, 0xa9, 0x03
 84e:	0000                	.2byte	0x0
 850:	021c                	.2byte	0x21c
 852:	0000                	.2byte	0x0
 854:	0120                	.2byte	0x120
 856:	0000                	.2byte	0x0
 858:	0286                	.2byte	0x286
 85a:	0000                	.2byte	0x0
 85c:	00000077          	.4byte	0x77
 860:	00a9                	.2byte	0xa9
 862:	0000                	.2byte	0x0
 864:	00000267          	jalr	tp,zero # 0 <isr_entry-0x80>
 868:	0000020f          	.4byte	0x20f
 86c:	025e                	.2byte	0x25e
 86e:	0000                	.2byte	0x0
 870:	0121                	.2byte	0x121
 872:	0000                	.2byte	0x0
 874:	0185                	.2byte	0x185
 876:	0000                	.2byte	0x0
 878:	031c                	.2byte	0x31c
 87a:	0000                	.2byte	0x0
 87c:	015f 0000 0321      	.byte	0x5f, 0x01, 0x00, 0x00, 0x21, 0x03
 882:	0000                	.2byte	0x0
 884:	000001c7          	.4byte	0x1c7
 888:	02d0                	.2byte	0x2d0
 88a:	0000                	.2byte	0x0
 88c:	0116                	.2byte	0x116
 88e:	0000                	.2byte	0x0
 890:	02f6                	.2byte	0x2f6
 892:	0000                	.2byte	0x0
 894:	0000016f          	jal	sp,894 <input_data+0x2c0>
 898:	02e9                	.2byte	0x2e9
 89a:	0000                	.2byte	0x0
 89c:	0166                	.2byte	0x166
 89e:	0000                	.2byte	0x0
 8a0:	005c                	.2byte	0x5c
 8a2:	0000                	.2byte	0x0
 8a4:	0248                	.2byte	0x248
 8a6:	0000                	.2byte	0x0
 8a8:	03dd                	.2byte	0x3dd
 8aa:	0000                	.2byte	0x0
 8ac:	003e                	.2byte	0x3e
 8ae:	0000                	.2byte	0x0
 8b0:	0000010f          	.4byte	0x10f
 8b4:	03d9                	.2byte	0x3d9
 8b6:	0000                	.2byte	0x0
 8b8:	0355                	.2byte	0x355
 8ba:	0000                	.2byte	0x0
 8bc:	00000193          	li	gp,0
 8c0:	0314                	.2byte	0x314
 8c2:	0000                	.2byte	0x0
 8c4:	015a                	.2byte	0x15a
 8c6:	0000                	.2byte	0x0
 8c8:	00000213          	li	tp,0
 8cc:	0205                	.2byte	0x205
 8ce:	0000                	.2byte	0x0
 8d0:	00de                	.2byte	0xde
 8d2:	0000                	.2byte	0x0
 8d4:	0000022f          	.4byte	0x22f
 8d8:	01cd                	.2byte	0x1cd
 8da:	0000                	.2byte	0x0
 8dc:	038c                	.2byte	0x38c
 8de:	0000                	.2byte	0x0
 8e0:	00f1                	.2byte	0xf1
 8e2:	0000                	.2byte	0x0
 8e4:	00000307          	.4byte	0x307
 8e8:	0166                	.2byte	0x166
 8ea:	0000                	.2byte	0x0
 8ec:	00ff                	.2byte	0xff
 8ee:	0000                	.2byte	0x0
 8f0:	014c                	.2byte	0x14c
 8f2:	0000                	.2byte	0x0
 8f4:	030a                	.2byte	0x30a
 8f6:	0000                	.2byte	0x0
 8f8:	02ac                	.2byte	0x2ac
 8fa:	0000                	.2byte	0x0
 8fc:	0256                	.2byte	0x256
 8fe:	0000                	.2byte	0x0
 900:	02e4                	.2byte	0x2e4
 902:	0000                	.2byte	0x0
 904:	0000008f          	.4byte	0x8f
 908:	01be                	.2byte	0x1be
 90a:	0000                	.2byte	0x0
 90c:	0021                	.2byte	0x21
 90e:	0000                	.2byte	0x0
 910:	00000137          	lui	sp,0x0
 914:	007d                	.2byte	0x7d
 916:	0000                	.2byte	0x0
 918:	000002e7          	jalr	t0,zero # 0 <isr_entry-0x80>
 91c:	03ad                	.2byte	0x3ad
 91e:	0000                	.2byte	0x0
 920:	022d                	.2byte	0x22d
 922:	0000                	.2byte	0x0
 924:	03a5                	.2byte	0x3a5
 926:	0000                	.2byte	0x0
 928:	01df 0000 031f      	.byte	0xdf, 0x01, 0x00, 0x00, 0x1f, 0x03
 92e:	0000                	.2byte	0x0
 930:	022d                	.2byte	0x22d
 932:	0000                	.2byte	0x0
 934:	0229                	.2byte	0x229
 936:	0000                	.2byte	0x0
 938:	039d                	.2byte	0x39d
 93a:	0000                	.2byte	0x0
 93c:	000001af          	.4byte	0x1af
 940:	031c                	.2byte	0x31c
 942:	0000                	.2byte	0x0
 944:	0288                	.2byte	0x288
 946:	0000                	.2byte	0x0
 948:	0165                	.2byte	0x165
 94a:	0000                	.2byte	0x0
 94c:	03b8                	.2byte	0x3b8
 94e:	0000                	.2byte	0x0
 950:	0000037b          	.4byte	0x37b
 954:	011f 0000 029a      	.byte	0x1f, 0x01, 0x00, 0x00, 0x9a, 0x02
 95a:	0000                	.2byte	0x0
 95c:	00000013          	nop
 960:	0202                	.2byte	0x202
 962:	0000                	.2byte	0x0
 964:	0031                	.2byte	0x31
 966:	0000                	.2byte	0x0
 968:	022d                	.2byte	0x22d
 96a:	0000                	.2byte	0x0
 96c:	0056                	.2byte	0x56
 96e:	0000                	.2byte	0x0
 970:	0366                	.2byte	0x366
 972:	0000                	.2byte	0x0
 974:	005f 0000 0355      	.byte	0x5f, 0x00, 0x00, 0x00, 0x55, 0x03
 97a:	0000                	.2byte	0x0
 97c:	01b9                	.2byte	0x1b9
 97e:	0000                	.2byte	0x0
 980:	01b8                	.2byte	0x1b8
 982:	0000                	.2byte	0x0
 984:	0000024b          	.4byte	0x24b
 988:	003d                	.2byte	0x3d
 98a:	0000                	.2byte	0x0
 98c:	0266                	.2byte	0x266
 98e:	0000                	.2byte	0x0
 990:	02a6                	.2byte	0x2a6
 992:	0000                	.2byte	0x0
 994:	017e                	.2byte	0x17e
 996:	0000                	.2byte	0x0
 998:	018c                	.2byte	0x18c
 99a:	0000                	.2byte	0x0
 99c:	0118                	.2byte	0x118
 99e:	0000                	.2byte	0x0
 9a0:	0009                	.2byte	0x9
 9a2:	0000                	.2byte	0x0
 9a4:	0328                	.2byte	0x328
 9a6:	0000                	.2byte	0x0
 9a8:	0011                	.2byte	0x11
 9aa:	0000                	.2byte	0x0
 9ac:	000003cb          	.4byte	0x3cb
 9b0:	00aa                	.2byte	0xaa
 9b2:	0000                	.2byte	0x0
 9b4:	00000333          	add	t1,zero,zero
 9b8:	00000123          	sb	zero,2(zero) # 2 <isr_entry-0x7e>
 9bc:	0158                	.2byte	0x158
 9be:	0000                	.2byte	0x0
 9c0:	017c                	.2byte	0x17c
 9c2:	0000                	.2byte	0x0
 9c4:	01c2                	.2byte	0x1c2
 9c6:	0000                	.2byte	0x0
 9c8:	0218                	.2byte	0x218
 9ca:	0000                	.2byte	0x0
 9cc:	0200                	.2byte	0x200
 9ce:	0000                	.2byte	0x0
 9d0:	00b9                	.2byte	0xb9
 9d2:	0000                	.2byte	0x0
 9d4:	03c5                	.2byte	0x3c5
 9d6:	0000                	.2byte	0x0
 9d8:	0395                	.2byte	0x395
 9da:	0000                	.2byte	0x0
 9dc:	0000015b          	.4byte	0x15b
 9e0:	0000021b          	.4byte	0x21b
 9e4:	0328                	.2byte	0x328
 9e6:	0000                	.2byte	0x0
 9e8:	000003d7          	.4byte	0x3d7
 9ec:	0372                	.2byte	0x372
 9ee:	0000                	.2byte	0x0
 9f0:	00000377          	.4byte	0x377
 9f4:	0219                	.2byte	0x219
 9f6:	0000                	.2byte	0x0
 9f8:	0036                	.2byte	0x36
 9fa:	0000                	.2byte	0x0
 9fc:	03b2                	.2byte	0x3b2
 9fe:	0000                	.2byte	0x0
 a00:	0264                	.2byte	0x264
 a02:	0000                	.2byte	0x0
 a04:	02bd                	.2byte	0x2bd
 a06:	0000                	.2byte	0x0
 a08:	000003b7          	lui	t2,0x0
 a0c:	0164                	.2byte	0x164
 a0e:	0000                	.2byte	0x0
 a10:	01df 0000 0237      	.byte	0xdf, 0x01, 0x00, 0x00, 0x37, 0x02
 a16:	0000                	.2byte	0x0
 a18:	00000097          	auipc	ra,0x0
 a1c:	0000037b          	.4byte	0x37b
 a20:	00000007          	.4byte	0x7
 a24:	0016                	.2byte	0x16
 a26:	0000                	.2byte	0x0
 a28:	0281                	.2byte	0x281
 a2a:	0000                	.2byte	0x0
 a2c:	0238                	.2byte	0x238
 a2e:	0000                	.2byte	0x0
 a30:	0000014f          	.4byte	0x14f
 a34:	0299                	.2byte	0x299
 a36:	0000                	.2byte	0x0
 a38:	02da                	.2byte	0x2da
 a3a:	0000                	.2byte	0x0
 a3c:	000001a7          	.4byte	0x1a7
 a40:	005f 0000 01b2      	.byte	0x5f, 0x00, 0x00, 0x00, 0xb2, 0x01
 a46:	0000                	.2byte	0x0
 a48:	02d8                	.2byte	0x2d8
 a4a:	0000                	.2byte	0x0
 a4c:	009e                	.2byte	0x9e
 a4e:	0000                	.2byte	0x0
 a50:	0118                	.2byte	0x118
 a52:	0000                	.2byte	0x0
 a54:	0002                	.2byte	0x2
 a56:	0000                	.2byte	0x0
 a58:	0000018b          	.4byte	0x18b
 a5c:	0054                	.2byte	0x54
 a5e:	0000                	.2byte	0x0
 a60:	02b0                	.2byte	0x2b0
 a62:	0000                	.2byte	0x0
 a64:	000000f7          	.4byte	0xf7
 a68:	0000038f          	.4byte	0x38f
 a6c:	0031                	.2byte	0x31
 a6e:	0000                	.2byte	0x0
 a70:	01dc                	.2byte	0x1dc
 a72:	0000                	.2byte	0x0
 a74:	000001b3          	add	gp,zero,zero
 a78:	0000032f          	.4byte	0x32f
 a7c:	0318                	.2byte	0x318
 a7e:	0000                	.2byte	0x0
 a80:	02d9                	.2byte	0x2d9
 a82:	0000                	.2byte	0x0
 a84:	0365                	.2byte	0x365
 a86:	0000                	.2byte	0x0
 a88:	0109                	.2byte	0x109
 a8a:	0000                	.2byte	0x0
 a8c:	01e6                	.2byte	0x1e6
 a8e:	0000                	.2byte	0x0
 a90:	007f                	.2byte	0x7f
 a92:	0000                	.2byte	0x0
 a94:	019e                	.2byte	0x19e
 a96:	0000                	.2byte	0x0
 a98:	00ec                	.2byte	0xec
 a9a:	0000                	.2byte	0x0
 a9c:	0171                	.2byte	0x171
 a9e:	0000                	.2byte	0x0
 aa0:	00d6                	.2byte	0xd6
 aa2:	0000                	.2byte	0x0
 aa4:	0224                	.2byte	0x224
 aa6:	0000                	.2byte	0x0
 aa8:	00b4                	.2byte	0xb4
 aaa:	0000                	.2byte	0x0
 aac:	0206                	.2byte	0x206
 aae:	0000                	.2byte	0x0
 ab0:	0006                	.2byte	0x6
 ab2:	0000                	.2byte	0x0
 ab4:	0378                	.2byte	0x378
 ab6:	0000                	.2byte	0x0
 ab8:	000001f7          	.4byte	0x1f7
 abc:	02aa                	.2byte	0x2aa
 abe:	0000                	.2byte	0x0
 ac0:	0254                	.2byte	0x254
 ac2:	0000                	.2byte	0x0
 ac4:	011c                	.2byte	0x11c
 ac6:	0000                	.2byte	0x0
 ac8:	00ad                	.2byte	0xad
 aca:	0000                	.2byte	0x0
 acc:	0108                	.2byte	0x108
 ace:	0000                	.2byte	0x0
 ad0:	00000283          	lb	t0,0(zero) # 0 <isr_entry-0x80>
 ad4:	000001f3          	.4byte	0x1f3
 ad8:	015a                	.2byte	0x15a
 ada:	0000                	.2byte	0x0
 adc:	0122                	.2byte	0x122
 ade:	0000                	.2byte	0x0
 ae0:	00000257          	.4byte	0x257
 ae4:	0381                	.2byte	0x381
 ae6:	0000                	.2byte	0x0
 ae8:	0044                	.2byte	0x44
 aea:	0000                	.2byte	0x0
 aec:	000000d7          	.4byte	0xd7
 af0:	0351                	.2byte	0x351
 af2:	0000                	.2byte	0x0
 af4:	000002db          	.4byte	0x2db
 af8:	0292                	.2byte	0x292
 afa:	0000                	.2byte	0x0
 afc:	02b0                	.2byte	0x2b0
 afe:	0000                	.2byte	0x0
 b00:	0000026b          	.4byte	0x26b
 b04:	000000fb          	.4byte	0xfb
 b08:	0079                	.2byte	0x79
 b0a:	0000                	.2byte	0x0
 b0c:	0312                	.2byte	0x312
 b0e:	0000                	.2byte	0x0
 b10:	00000083          	lb	ra,0(zero) # 0 <isr_entry-0x80>
 b14:	0000022b          	.4byte	0x22b
 b18:	033c                	.2byte	0x33c
 b1a:	0000                	.2byte	0x0
 b1c:	012e                	.2byte	0x12e
 b1e:	0000                	.2byte	0x0
 b20:	0000029b          	.4byte	0x29b
 b24:	0210                	.2byte	0x210
 b26:	0000                	.2byte	0x0
 b28:	01b1                	.2byte	0x1b1
 b2a:	0000                	.2byte	0x0
 b2c:	0220                	.2byte	0x220
 b2e:	0000                	.2byte	0x0
 b30:	000001e7          	jalr	gp,zero # 0 <isr_entry-0x80>
 b34:	0142                	.2byte	0x142
 b36:	0000                	.2byte	0x0
 b38:	02f1                	.2byte	0x2f1
 b3a:	0000                	.2byte	0x0
 b3c:	000003b3          	add	t2,zero,zero
 b40:	007d                	.2byte	0x7d
 b42:	0000                	.2byte	0x0
 b44:	011f 0000 0272      	.byte	0x1f, 0x01, 0x00, 0x00, 0x72, 0x02
 b4a:	0000                	.2byte	0x0
 b4c:	0338                	.2byte	0x338
 b4e:	0000                	.2byte	0x0
 b50:	000e                	.2byte	0xe
 b52:	0000                	.2byte	0x0
 b54:	0130                	.2byte	0x130
 b56:	0000                	.2byte	0x0
 b58:	000a                	.2byte	0xa
 b5a:	0000                	.2byte	0x0
 b5c:	0314                	.2byte	0x314
 b5e:	0000                	.2byte	0x0
 b60:	00000193          	li	gp,0
 b64:	02dd                	.2byte	0x2dd
 b66:	0000                	.2byte	0x0
 b68:	006a                	.2byte	0x6a
 b6a:	0000                	.2byte	0x0
 b6c:	000003bf 000002bf 	.8byte	0x2bf000003bf
 b74:	016e                	.2byte	0x16e
 b76:	0000                	.2byte	0x0
 b78:	0332                	.2byte	0x332
 b7a:	0000                	.2byte	0x0
 b7c:	02d2                	.2byte	0x2d2
 b7e:	0000                	.2byte	0x0
 b80:	03c4                	.2byte	0x3c4
 b82:	0000                	.2byte	0x0
 b84:	0126                	.2byte	0x126
 b86:	0000                	.2byte	0x0
 b88:	0196                	.2byte	0x196
 b8a:	0000                	.2byte	0x0
 b8c:	000003cf          	.4byte	0x3cf
 b90:	036a                	.2byte	0x36a
 b92:	0000                	.2byte	0x0
 b94:	028d                	.2byte	0x28d
 b96:	0000                	.2byte	0x0
 b98:	0358                	.2byte	0x358
 b9a:	0000                	.2byte	0x0
 b9c:	02ec                	.2byte	0x2ec
 b9e:	0000                	.2byte	0x0
 ba0:	0056                	.2byte	0x56
 ba2:	0000                	.2byte	0x0
 ba4:	0000005b          	.4byte	0x5b
 ba8:	003c                	.2byte	0x3c
 baa:	0000                	.2byte	0x0
 bac:	017a                	.2byte	0x17a
 bae:	0000                	.2byte	0x0
 bb0:	0294                	.2byte	0x294
 bb2:	0000                	.2byte	0x0
 bb4:	0069                	.2byte	0x69
 bb6:	0000                	.2byte	0x0
 bb8:	0000029b          	.4byte	0x29b
 bbc:	0066                	.2byte	0x66
 bbe:	0000                	.2byte	0x0
 bc0:	0099                	.2byte	0x99
 bc2:	0000                	.2byte	0x0
 bc4:	017d                	.2byte	0x17d
 bc6:	0000                	.2byte	0x0
 bc8:	0079                	.2byte	0x79
 bca:	0000                	.2byte	0x0
 bcc:	0000028b          	.4byte	0x28b
 bd0:	0062                	.2byte	0x62
 bd2:	0000                	.2byte	0x0
 bd4:	0339                	.2byte	0x339
 bd6:	0000                	.2byte	0x0
 bd8:	019c                	.2byte	0x19c
 bda:	0000                	.2byte	0x0
 bdc:	0348                	.2byte	0x348
 bde:	0000                	.2byte	0x0
 be0:	00ec                	.2byte	0xec
 be2:	0000                	.2byte	0x0
 be4:	0164                	.2byte	0x164
 be6:	0000                	.2byte	0x0
 be8:	000c                	.2byte	0xc
 bea:	0000                	.2byte	0x0
 bec:	0094                	.2byte	0x94
 bee:	0000                	.2byte	0x0
 bf0:	000001a7          	.4byte	0x1a7
 bf4:	0036                	.2byte	0x36
 bf6:	0000                	.2byte	0x0
 bf8:	03c5                	.2byte	0x3c5
 bfa:	0000                	.2byte	0x0
 bfc:	008c                	.2byte	0x8c
 bfe:	0000                	.2byte	0x0
 c00:	00d8                	.2byte	0xd8
 c02:	0000                	.2byte	0x0
 c04:	000003bb          	.4byte	0x3bb
 c08:	026d                	.2byte	0x26d
 c0a:	0000                	.2byte	0x0
 c0c:	00000157          	.4byte	0x157
 c10:	0169                	.2byte	0x169
 c12:	0000                	.2byte	0x0

00000c14 <isr>:
 c14:	ffff                	.2byte	0xffff
 c16:	ffff                	.2byte	0xffff
 c18:	ffff                	.2byte	0xffff
 c1a:	ffff                	.2byte	0xffff
 c1c:	ffff                	.2byte	0xffff
 c1e:	ffff                	.2byte	0xffff
 c20:	ffff                	.2byte	0xffff
 c22:	ffff                	.2byte	0xffff
 c24:	ffff                	.2byte	0xffff
 c26:	ffff                	.2byte	0xffff
 c28:	ffff                	.2byte	0xffff
 c2a:	ffff                	.2byte	0xffff
 c2c:	ffff                	.2byte	0xffff
 c2e:	ffff                	.2byte	0xffff
 c30:	ffff                	.2byte	0xffff
 c32:	ffff                	.2byte	0xffff
 c34:	ffff                	.2byte	0xffff
 c36:	ffff                	.2byte	0xffff
 c38:	ffff                	.2byte	0xffff
 c3a:	ffff                	.2byte	0xffff

Disassembly of section .comment:

00000000 <.comment>:
   0:	3a434347          	.4byte	0x3a434347
   4:	2820                	.2byte	0x2820
   6:	65653267          	.4byte	0x65653267
   a:	6535                	.2byte	0x6535
   c:	3334                	.2byte	0x3334
   e:	3030                	.2byte	0x3030
  10:	3831                	.2byte	0x3831
  12:	2029                	.2byte	0x2029
  14:	3231                	.2byte	0x3231
  16:	322e                	.2byte	0x322e
  18:	302e                	.2byte	0x302e
  1a:	00              	Address 0x000000000000001a is out of bounds.


Disassembly of section .riscv.attributes:

00000000 <.riscv.attributes>:
   0:	2d41                	.2byte	0x2d41
   2:	0000                	.2byte	0x0
   4:	7200                	.2byte	0x7200
   6:	7369                	.2byte	0x7369
   8:	01007663          	bgeu	zero,a6,14 <isr_entry-0x6c>
   c:	00000023          	sb	zero,0(zero) # 0 <isr_entry-0x80>
  10:	1004                	.2byte	0x1004
  12:	7205                	.2byte	0x7205
  14:	3376                	.2byte	0x3376
  16:	6932                	.2byte	0x6932
  18:	7032                	.2byte	0x7032
  1a:	5f31                	.2byte	0x5f31
  1c:	326d                	.2byte	0x326d
  1e:	3070                	.2byte	0x3070
  20:	7a5f 6369 7273      	.byte	0x5f, 0x7a, 0x69, 0x63, 0x73, 0x72
  26:	7032                	.2byte	0x7032
  28:	0030                	.2byte	0x30
  2a:	0108                	.2byte	0x108
  2c:	0b0a                	.2byte	0xb0a
