
rsort.riscv:     file format elf32-littleriscv

Sections:
Idx Name          Size      VMA       LMA       File off  Algn
  0 .text.isr     00000104  00000080  00000080  00000080  2**0
                  CONTENTS, ALLOC, LOAD, READONLY, CODE
  1 .text.init    000000a8  00000200  00000200  00000200  2**0
                  CONTENTS, ALLOC, LOAD, READONLY, CODE
  2 .text         000005a0  000002a8  000002a8  000002a8  2**2
                  CONTENTS, ALLOC, LOAD, READONLY, CODE
  3 .text.startup 0000006c  00000848  00000848  00000848  2**2
                  CONTENTS, ALLOC, LOAD, READONLY, CODE
  4 .data         00002028  000008b4  000008b4  000008b4  2**2
                  CONTENTS, ALLOC, LOAD, DATA
  5 .bss          00001000  000028dc  000028dc  000028dc  2**2
                  ALLOC
  6 .comment      0000001b  00000000  00000000  000028dc  2**0
                  CONTENTS, READONLY
  7 .riscv.attributes 0000002e  00000000  00000000  000028f7  2**0
                  CONTENTS, READONLY

Disassembly of section .text.isr:

00000080 <isr_entry>:
  80:	00112023          	sw	ra,0(sp)
  84:	fe312e23          	sw	gp,-4(sp)
  88:	fe412c23          	sw	tp,-8(sp)
  8c:	fe512a23          	sw	t0,-12(sp)
  90:	fe612823          	sw	t1,-16(sp)
  94:	fe712623          	sw	t2,-20(sp)
  98:	fe812423          	sw	s0,-24(sp)
  9c:	fe912223          	sw	s1,-28(sp)
  a0:	fea12023          	sw	a0,-32(sp)
  a4:	fcb12e23          	sw	a1,-36(sp)
  a8:	fcc12c23          	sw	a2,-40(sp)
  ac:	fcd12a23          	sw	a3,-44(sp)
  b0:	fce12823          	sw	a4,-48(sp)
  b4:	fcf12623          	sw	a5,-52(sp)
  b8:	fd012423          	sw	a6,-56(sp)
  bc:	fd112223          	sw	a7,-60(sp)
  c0:	fd212023          	sw	s2,-64(sp)
  c4:	fb312e23          	sw	s3,-68(sp)
  c8:	fb412c23          	sw	s4,-72(sp)
  cc:	fb512a23          	sw	s5,-76(sp)
  d0:	fb612823          	sw	s6,-80(sp)
  d4:	fb712623          	sw	s7,-84(sp)
  d8:	fb812423          	sw	s8,-88(sp)
  dc:	fb912223          	sw	s9,-92(sp)
  e0:	fba12023          	sw	s10,-96(sp)
  e4:	f9b12e23          	sw	s11,-100(sp)
  e8:	f9c12c23          	sw	t3,-104(sp)
  ec:	f9d12a23          	sw	t4,-108(sp)
  f0:	f9e12823          	sw	t5,-112(sp)
  f4:	f9f12623          	sw	t6,-116(sp)
  f8:	f8010113          	addi	sp,sp,-128
  fc:	00002573          	csrr	a0,ustatus
 100:	4dc000ef          	jal	ra,5dc <__int_handler>
 104:	08010113          	addi	sp,sp,128
 108:	00012083          	lw	ra,0(sp)
 10c:	ffc12183          	lw	gp,-4(sp)
 110:	ff812203          	lw	tp,-8(sp)
 114:	ff412283          	lw	t0,-12(sp)
 118:	ff012303          	lw	t1,-16(sp)
 11c:	fec12383          	lw	t2,-20(sp)
 120:	fe812403          	lw	s0,-24(sp)
 124:	fe412483          	lw	s1,-28(sp)
 128:	fe012503          	lw	a0,-32(sp)
 12c:	fdc12583          	lw	a1,-36(sp)
 130:	fd812603          	lw	a2,-40(sp)
 134:	fd412683          	lw	a3,-44(sp)
 138:	fd012703          	lw	a4,-48(sp)
 13c:	fcc12783          	lw	a5,-52(sp)
 140:	fc812803          	lw	a6,-56(sp)
 144:	fc412883          	lw	a7,-60(sp)
 148:	fc012903          	lw	s2,-64(sp)
 14c:	fbc12983          	lw	s3,-68(sp)
 150:	fb812a03          	lw	s4,-72(sp)
 154:	fb412a83          	lw	s5,-76(sp)
 158:	fb012b03          	lw	s6,-80(sp)
 15c:	fac12b83          	lw	s7,-84(sp)
 160:	fa812c03          	lw	s8,-88(sp)
 164:	fa412c83          	lw	s9,-92(sp)
 168:	fa012d03          	lw	s10,-96(sp)
 16c:	f9c12d83          	lw	s11,-100(sp)
 170:	f9812e03          	lw	t3,-104(sp)
 174:	f9412e83          	lw	t4,-108(sp)
 178:	f9012f03          	lw	t5,-112(sp)
 17c:	f8c12f83          	lw	t6,-116(sp)
 180:	30200073          	mret

Disassembly of section .text.init:

00000200 <_start>:
 200:	00000093          	li	ra,0
 204:	00000113          	li	sp,0
 208:	00000193          	li	gp,0
 20c:	00000213          	li	tp,0
 210:	00000293          	li	t0,0
 214:	00000313          	li	t1,0
 218:	00000393          	li	t2,0
 21c:	00000413          	li	s0,0
 220:	00000493          	li	s1,0
 224:	00000513          	li	a0,0
 228:	00000593          	li	a1,0
 22c:	00000613          	li	a2,0
 230:	00000693          	li	a3,0
 234:	00000713          	li	a4,0
 238:	00000793          	li	a5,0
 23c:	00000813          	li	a6,0
 240:	00000893          	li	a7,0
 244:	00000913          	li	s2,0
 248:	00000993          	li	s3,0
 24c:	00000a13          	li	s4,0
 250:	00000a93          	li	s5,0
 254:	00000b13          	li	s6,0
 258:	00000b93          	li	s7,0
 25c:	00000c13          	li	s8,0
 260:	00000c93          	li	s9,0
 264:	00000d13          	li	s10,0
 268:	00000d93          	li	s11,0
 26c:	00000e13          	li	t3,0
 270:	00000e93          	li	t4,0
 274:	00000f13          	li	t5,0
 278:	00000f93          	li	t6,0
 27c:	00003197          	auipc	gp,0x3
 280:	e6018193          	addi	gp,gp,-416 # 30dc <__global_pointer$>
 284:	00003217          	auipc	tp,0x3
 288:	69720213          	addi	tp,tp,1687 # 391b <_end+0x3f>
 28c:	fc027213          	andi	tp,tp,-64
 290:	00e51613          	slli	a2,a0,0xe
 294:	00c20233          	add	tp,tp,a2
 298:	00150113          	addi	sp,a0,1
 29c:	00e11113          	slli	sp,sp,0xe
 2a0:	00410133          	add	sp,sp,tp
 2a4:	5a40006f          	j	848 <main>

Disassembly of section .text:

000002a8 <sort>:
 2a8:	bd010113          	addi	sp,sp,-1072
 2ac:	42812423          	sw	s0,1064(sp)
 2b0:	00251413          	slli	s0,a0,0x2
 2b4:	ff340713          	addi	a4,s0,-13
 2b8:	ff040793          	addi	a5,s0,-16
 2bc:	00475713          	srli	a4,a4,0x4
 2c0:	fff7c793          	not	a5,a5
 2c4:	42912223          	sw	s1,1060(sp)
 2c8:	43212023          	sw	s2,1056(sp)
 2cc:	41312e23          	sw	s3,1052(sp)
 2d0:	41412c23          	sw	s4,1048(sp)
 2d4:	41512a23          	sw	s5,1044(sp)
 2d8:	41612823          	sw	s6,1040(sp)
 2dc:	41712623          	sw	s7,1036(sp)
 2e0:	41812423          	sw	s8,1032(sp)
 2e4:	41912223          	sw	s9,1028(sp)
 2e8:	41a12023          	sw	s10,1024(sp)
 2ec:	ff440a93          	addi	s5,s0,-12
 2f0:	00040993          	mv	s3,s0
 2f4:	00010693          	mv	a3,sp
 2f8:	42112623          	sw	ra,1068(sp)
 2fc:	00058b13          	mv	s6,a1
 300:	00060c13          	mv	s8,a2
 304:	ffc40413          	addi	s0,s0,-4
 308:	00868a13          	addi	s4,a3,8
 30c:	00058c93          	mv	s9,a1
 310:	00000b93          	li	s7,0
 314:	40068d13          	addi	s10,a3,1024
 318:	00170913          	addi	s2,a4,1
 31c:	ff07f493          	andi	s1,a5,-16
 320:	00000593          	li	a1,0
 324:	00068513          	mv	a0,a3
 328:	40000613          	li	a2,1024
 32c:	364000ef          	jal	ra,690 <memset>
 330:	00050693          	mv	a3,a0
 334:	015c8533          	add	a0,s9,s5
 338:	000c8593          	mv	a1,s9
 33c:	000c8713          	mv	a4,s9
 340:	08acfa63          	bgeu	s9,a0,3d4 <sort+0x12c>
 344:	0005a803          	lw	a6,0(a1)
 348:	0045a603          	lw	a2,4(a1)
 34c:	0085a703          	lw	a4,8(a1)
 350:	01785833          	srl	a6,a6,s7
 354:	0ff87813          	zext.b	a6,a6
 358:	00281813          	slli	a6,a6,0x2
 35c:	01068833          	add	a6,a3,a6
 360:	00082883          	lw	a7,0(a6)
 364:	01765633          	srl	a2,a2,s7
 368:	0ff67613          	zext.b	a2,a2
 36c:	00188893          	addi	a7,a7,1
 370:	00261613          	slli	a2,a2,0x2
 374:	00c5a783          	lw	a5,12(a1)
 378:	00c68633          	add	a2,a3,a2
 37c:	01182023          	sw	a7,0(a6)
 380:	00062803          	lw	a6,0(a2)
 384:	01775733          	srl	a4,a4,s7
 388:	0ff77713          	zext.b	a4,a4
 38c:	00180813          	addi	a6,a6,1
 390:	00271713          	slli	a4,a4,0x2
 394:	01062023          	sw	a6,0(a2)
 398:	00e68733          	add	a4,a3,a4
 39c:	00072603          	lw	a2,0(a4)
 3a0:	0177d7b3          	srl	a5,a5,s7
 3a4:	0ff7f793          	zext.b	a5,a5
 3a8:	00160613          	addi	a2,a2,1
 3ac:	00279793          	slli	a5,a5,0x2
 3b0:	00c72023          	sw	a2,0(a4)
 3b4:	00f687b3          	add	a5,a3,a5
 3b8:	0007a703          	lw	a4,0(a5)
 3bc:	01058593          	addi	a1,a1,16
 3c0:	00170713          	addi	a4,a4,1
 3c4:	00e7a023          	sw	a4,0(a5)
 3c8:	f6a5eee3          	bltu	a1,a0,344 <sort+0x9c>
 3cc:	00491713          	slli	a4,s2,0x4
 3d0:	00ec8733          	add	a4,s9,a4
 3d4:	013c85b3          	add	a1,s9,s3
 3d8:	02b77663          	bgeu	a4,a1,404 <sort+0x15c>
 3dc:	00072783          	lw	a5,0(a4)
 3e0:	00470713          	addi	a4,a4,4
 3e4:	0177d7b3          	srl	a5,a5,s7
 3e8:	0ff7f793          	zext.b	a5,a5
 3ec:	00279793          	slli	a5,a5,0x2
 3f0:	00f687b3          	add	a5,a3,a5
 3f4:	0007a603          	lw	a2,0(a5)
 3f8:	00160613          	addi	a2,a2,1
 3fc:	00c7a023          	sw	a2,0(a5)
 400:	fcb76ee3          	bltu	a4,a1,3dc <sort+0x134>
 404:	0046a603          	lw	a2,4(a3)
 408:	0006a703          	lw	a4,0(a3)
 40c:	000a0793          	mv	a5,s4
 410:	00e60633          	add	a2,a2,a4
 414:	00c6a223          	sw	a2,4(a3)
 418:	0007a703          	lw	a4,0(a5)
 41c:	0047a583          	lw	a1,4(a5)
 420:	00878793          	addi	a5,a5,8
 424:	00e60733          	add	a4,a2,a4
 428:	00b70633          	add	a2,a4,a1
 42c:	fee7ac23          	sw	a4,-8(a5)
 430:	fec7ae23          	sw	a2,-4(a5)
 434:	ffa792e3          	bne	a5,s10,418 <sort+0x170>
 438:	008c8eb3          	add	t4,s9,s0
 43c:	00cc8f13          	addi	t5,s9,12
 440:	0deee263          	bltu	t4,t5,504 <sort+0x25c>
 444:	000e8613          	mv	a2,t4
 448:	00062e03          	lw	t3,0(a2)
 44c:	ffc62303          	lw	t1,-4(a2)
 450:	ff862883          	lw	a7,-8(a2)
 454:	017e5733          	srl	a4,t3,s7
 458:	0ff77713          	zext.b	a4,a4
 45c:	00271713          	slli	a4,a4,0x2
 460:	00e68733          	add	a4,a3,a4
 464:	00072503          	lw	a0,0(a4)
 468:	017357b3          	srl	a5,t1,s7
 46c:	0ff7f793          	zext.b	a5,a5
 470:	fff50593          	addi	a1,a0,-1
 474:	00279793          	slli	a5,a5,0x2
 478:	ff462803          	lw	a6,-12(a2)
 47c:	00f687b3          	add	a5,a3,a5
 480:	00b72023          	sw	a1,0(a4)
 484:	0007a583          	lw	a1,0(a5)
 488:	0178d733          	srl	a4,a7,s7
 48c:	0ff77713          	zext.b	a4,a4
 490:	fff58f93          	addi	t6,a1,-1
 494:	00271713          	slli	a4,a4,0x2
 498:	01f7a023          	sw	t6,0(a5)
 49c:	00e68733          	add	a4,a3,a4
 4a0:	00072f83          	lw	t6,0(a4)
 4a4:	017857b3          	srl	a5,a6,s7
 4a8:	0ff7f793          	zext.b	a5,a5
 4ac:	ffff8293          	addi	t0,t6,-1
 4b0:	00279793          	slli	a5,a5,0x2
 4b4:	00572023          	sw	t0,0(a4)
 4b8:	00f687b3          	add	a5,a3,a5
 4bc:	0007a703          	lw	a4,0(a5)
 4c0:	00251513          	slli	a0,a0,0x2
 4c4:	00ac0533          	add	a0,s8,a0
 4c8:	fff70293          	addi	t0,a4,-1
 4cc:	0057a023          	sw	t0,0(a5)
 4d0:	00259593          	slli	a1,a1,0x2
 4d4:	ffc52e23          	sw	t3,-4(a0)
 4d8:	00bc05b3          	add	a1,s8,a1
 4dc:	002f9f93          	slli	t6,t6,0x2
 4e0:	fe65ae23          	sw	t1,-4(a1)
 4e4:	01fc0fb3          	add	t6,s8,t6
 4e8:	00271713          	slli	a4,a4,0x2
 4ec:	ff1fae23          	sw	a7,-4(t6)
 4f0:	00ec0733          	add	a4,s8,a4
 4f4:	ff072e23          	sw	a6,-4(a4)
 4f8:	ff060613          	addi	a2,a2,-16
 4fc:	f5e676e3          	bgeu	a2,t5,448 <sort+0x1a0>
 500:	009e8eb3          	add	t4,t4,s1
 504:	039eee63          	bltu	t4,s9,540 <sort+0x298>
 508:	000ea783          	lw	a5,0(t4)
 50c:	ffce8e93          	addi	t4,t4,-4
 510:	0177d7b3          	srl	a5,a5,s7
 514:	0ff7f793          	zext.b	a5,a5
 518:	00279793          	slli	a5,a5,0x2
 51c:	00f687b3          	add	a5,a3,a5
 520:	0007a703          	lw	a4,0(a5)
 524:	fff70713          	addi	a4,a4,-1
 528:	00e7a023          	sw	a4,0(a5)
 52c:	004ea783          	lw	a5,4(t4)
 530:	00271713          	slli	a4,a4,0x2
 534:	00ec0733          	add	a4,s8,a4
 538:	00f72023          	sw	a5,0(a4)
 53c:	fd9ef6e3          	bgeu	t4,s9,508 <sort+0x260>
 540:	008b8b93          	addi	s7,s7,8
 544:	02000793          	li	a5,32
 548:	00fb8a63          	beq	s7,a5,55c <sort+0x2b4>
 54c:	000c8793          	mv	a5,s9
 550:	000c0c93          	mv	s9,s8
 554:	00078c13          	mv	s8,a5
 558:	dc9ff06f          	j	320 <sort+0x78>
 55c:	058b0463          	beq	s6,s8,5a4 <sort+0x2fc>
 560:	42812403          	lw	s0,1064(sp)
 564:	42c12083          	lw	ra,1068(sp)
 568:	42412483          	lw	s1,1060(sp)
 56c:	42012903          	lw	s2,1056(sp)
 570:	41812a03          	lw	s4,1048(sp)
 574:	41412a83          	lw	s5,1044(sp)
 578:	41012b03          	lw	s6,1040(sp)
 57c:	40c12b83          	lw	s7,1036(sp)
 580:	40012d03          	lw	s10,1024(sp)
 584:	00098613          	mv	a2,s3
 588:	000c8593          	mv	a1,s9
 58c:	41c12983          	lw	s3,1052(sp)
 590:	40412c83          	lw	s9,1028(sp)
 594:	000c0513          	mv	a0,s8
 598:	40812c03          	lw	s8,1032(sp)
 59c:	43010113          	addi	sp,sp,1072
 5a0:	0940006f          	j	634 <memcpy>
 5a4:	42c12083          	lw	ra,1068(sp)
 5a8:	42812403          	lw	s0,1064(sp)
 5ac:	42412483          	lw	s1,1060(sp)
 5b0:	42012903          	lw	s2,1056(sp)
 5b4:	41c12983          	lw	s3,1052(sp)
 5b8:	41812a03          	lw	s4,1048(sp)
 5bc:	41412a83          	lw	s5,1044(sp)
 5c0:	41012b03          	lw	s6,1040(sp)
 5c4:	40c12b83          	lw	s7,1036(sp)
 5c8:	40812c03          	lw	s8,1032(sp)
 5cc:	40412c83          	lw	s9,1028(sp)
 5d0:	40012d03          	lw	s10,1024(sp)
 5d4:	43010113          	addi	sp,sp,1072
 5d8:	00008067          	ret

000005dc <__int_handler>:
 5dc:	00251693          	slli	a3,a0,0x2
 5e0:	00002717          	auipc	a4,0x2
 5e4:	2d470713          	addi	a4,a4,724 # 28b4 <isr>
 5e8:	00d70733          	add	a4,a4,a3
 5ec:	00072703          	lw	a4,0(a4)
 5f0:	fff00693          	li	a3,-1
 5f4:	00d70863          	beq	a4,a3,604 <__int_handler+0x28>
 5f8:	00900693          	li	a3,9
 5fc:	00a6c463          	blt	a3,a0,604 <__int_handler+0x28>
 600:	00070067          	jr	a4
 604:	00008067          	ret

00000608 <ConnectISR>:
 608:	00900793          	li	a5,9
 60c:	02a7c063          	blt	a5,a0,62c <ConnectISR+0x24>
 610:	00251513          	slli	a0,a0,0x2
 614:	00002797          	auipc	a5,0x2
 618:	2a078793          	addi	a5,a5,672 # 28b4 <isr>
 61c:	00a787b3          	add	a5,a5,a0
 620:	00b7a023          	sw	a1,0(a5)
 624:	00000513          	li	a0,0
 628:	00008067          	ret
 62c:	fff00513          	li	a0,-1
 630:	00008067          	ret

00000634 <memcpy>:
 634:	00b567b3          	or	a5,a0,a1
 638:	00c7e7b3          	or	a5,a5,a2
 63c:	0037f793          	andi	a5,a5,3
 640:	00c506b3          	add	a3,a0,a2
 644:	02078463          	beqz	a5,66c <memcpy+0x38>
 648:	00c58633          	add	a2,a1,a2
 64c:	00050793          	mv	a5,a0
 650:	02d57e63          	bgeu	a0,a3,68c <memcpy+0x58>
 654:	0005c703          	lbu	a4,0(a1)
 658:	00158593          	addi	a1,a1,1
 65c:	00178793          	addi	a5,a5,1
 660:	fee78fa3          	sb	a4,-1(a5)
 664:	fec598e3          	bne	a1,a2,654 <memcpy+0x20>
 668:	00008067          	ret
 66c:	fed57ee3          	bgeu	a0,a3,668 <memcpy+0x34>
 670:	00050793          	mv	a5,a0
 674:	0005a703          	lw	a4,0(a1)
 678:	00478793          	addi	a5,a5,4
 67c:	00458593          	addi	a1,a1,4
 680:	fee7ae23          	sw	a4,-4(a5)
 684:	fed7e8e3          	bltu	a5,a3,674 <memcpy+0x40>
 688:	00008067          	ret
 68c:	00008067          	ret

00000690 <memset>:
 690:	ff010113          	addi	sp,sp,-16
 694:	00c567b3          	or	a5,a0,a2
 698:	00812423          	sw	s0,8(sp)
 69c:	00112623          	sw	ra,12(sp)
 6a0:	0037f793          	andi	a5,a5,3
 6a4:	00050413          	mv	s0,a0
 6a8:	00c50733          	add	a4,a0,a2
 6ac:	02078263          	beqz	a5,6d0 <memset+0x40>
 6b0:	00e57663          	bgeu	a0,a4,6bc <memset+0x2c>
 6b4:	0ff5f593          	zext.b	a1,a1
 6b8:	fd9ff0ef          	jal	ra,690 <memset>
 6bc:	00c12083          	lw	ra,12(sp)
 6c0:	00040513          	mv	a0,s0
 6c4:	00812403          	lw	s0,8(sp)
 6c8:	01010113          	addi	sp,sp,16
 6cc:	00008067          	ret
 6d0:	0ff5f593          	zext.b	a1,a1
 6d4:	00859693          	slli	a3,a1,0x8
 6d8:	00b686b3          	add	a3,a3,a1
 6dc:	01069793          	slli	a5,a3,0x10
 6e0:	00f686b3          	add	a3,a3,a5
 6e4:	fce57ce3          	bgeu	a0,a4,6bc <memset+0x2c>
 6e8:	00050793          	mv	a5,a0
 6ec:	00478793          	addi	a5,a5,4
 6f0:	fed7ae23          	sw	a3,-4(a5)
 6f4:	fee7ece3          	bltu	a5,a4,6ec <memset+0x5c>
 6f8:	00c12083          	lw	ra,12(sp)
 6fc:	00040513          	mv	a0,s0
 700:	00812403          	lw	s0,8(sp)
 704:	01010113          	addi	sp,sp,16
 708:	00008067          	ret

0000070c <strlen>:
 70c:	00054783          	lbu	a5,0(a0)
 710:	00078e63          	beqz	a5,72c <strlen+0x20>
 714:	00050793          	mv	a5,a0
 718:	0017c703          	lbu	a4,1(a5)
 71c:	00178793          	addi	a5,a5,1
 720:	fe071ce3          	bnez	a4,718 <strlen+0xc>
 724:	40a78533          	sub	a0,a5,a0
 728:	00008067          	ret
 72c:	00000513          	li	a0,0
 730:	00008067          	ret

00000734 <strnlen>:
 734:	00b506b3          	add	a3,a0,a1
 738:	00050793          	mv	a5,a0
 73c:	00059863          	bnez	a1,74c <strnlen+0x18>
 740:	0240006f          	j	764 <strnlen+0x30>
 744:	00178793          	addi	a5,a5,1
 748:	00f68a63          	beq	a3,a5,75c <strnlen+0x28>
 74c:	0007c703          	lbu	a4,0(a5)
 750:	fe071ae3          	bnez	a4,744 <strnlen+0x10>
 754:	40a78533          	sub	a0,a5,a0
 758:	00008067          	ret
 75c:	40a68533          	sub	a0,a3,a0
 760:	00008067          	ret
 764:	00000513          	li	a0,0
 768:	00008067          	ret

0000076c <strcmp>:
 76c:	00054783          	lbu	a5,0(a0)
 770:	00158593          	addi	a1,a1,1
 774:	00150513          	addi	a0,a0,1
 778:	fff5c703          	lbu	a4,-1(a1)
 77c:	00078863          	beqz	a5,78c <strcmp+0x20>
 780:	fee786e3          	beq	a5,a4,76c <strcmp>
 784:	40e78533          	sub	a0,a5,a4
 788:	00008067          	ret
 78c:	00000793          	li	a5,0
 790:	ff5ff06f          	j	784 <strcmp+0x18>

00000794 <strcpy>:
 794:	00050793          	mv	a5,a0
 798:	0005c703          	lbu	a4,0(a1)
 79c:	00178793          	addi	a5,a5,1
 7a0:	00158593          	addi	a1,a1,1
 7a4:	fee78fa3          	sb	a4,-1(a5)
 7a8:	fe0718e3          	bnez	a4,798 <strcpy+0x4>
 7ac:	00008067          	ret

000007b0 <atol>:
 7b0:	00054703          	lbu	a4,0(a0)
 7b4:	02000693          	li	a3,32
 7b8:	00050793          	mv	a5,a0
 7bc:	00d71863          	bne	a4,a3,7cc <atol+0x1c>
 7c0:	0017c703          	lbu	a4,1(a5)
 7c4:	00178793          	addi	a5,a5,1
 7c8:	fed70ce3          	beq	a4,a3,7c0 <atol+0x10>
 7cc:	02d00693          	li	a3,45
 7d0:	06d70063          	beq	a4,a3,830 <atol+0x80>
 7d4:	02b00693          	li	a3,43
 7d8:	04d70063          	beq	a4,a3,818 <atol+0x68>
 7dc:	0007c683          	lbu	a3,0(a5)
 7e0:	00000593          	li	a1,0
 7e4:	04068263          	beqz	a3,828 <atol+0x78>
 7e8:	00000513          	li	a0,0
 7ec:	00178793          	addi	a5,a5,1
 7f0:	00251713          	slli	a4,a0,0x2
 7f4:	fd068613          	addi	a2,a3,-48
 7f8:	0007c683          	lbu	a3,0(a5)
 7fc:	00a70733          	add	a4,a4,a0
 800:	00171713          	slli	a4,a4,0x1
 804:	00e60533          	add	a0,a2,a4
 808:	fe0692e3          	bnez	a3,7ec <atol+0x3c>
 80c:	02058063          	beqz	a1,82c <atol+0x7c>
 810:	40a00533          	neg	a0,a0
 814:	00008067          	ret
 818:	0017c683          	lbu	a3,1(a5)
 81c:	00000593          	li	a1,0
 820:	00178793          	addi	a5,a5,1
 824:	fc0692e3          	bnez	a3,7e8 <atol+0x38>
 828:	00000513          	li	a0,0
 82c:	00008067          	ret
 830:	0017c683          	lbu	a3,1(a5)
 834:	00100593          	li	a1,1
 838:	00178793          	addi	a5,a5,1
 83c:	fa0696e3          	bnez	a3,7e8 <atol+0x38>
 840:	00000513          	li	a0,0
 844:	fe9ff06f          	j	82c <atol+0x7c>

Disassembly of section .text.startup:

00000848 <main>:
 848:	ff010113          	addi	sp,sp,-16
 84c:	800007b7          	lui	a5,0x80000
 850:	00112623          	sw	ra,12(sp)
 854:	0007a023          	sw	zero,0(a5) # 80000000 <_end+0x7fffc724>
 858:	00001597          	auipc	a1,0x1
 85c:	05c58593          	addi	a1,a1,92 # 18b4 <input_data>
 860:	40000513          	li	a0,1024
 864:	00002617          	auipc	a2,0x2
 868:	07860613          	addi	a2,a2,120 # 28dc <scratch.0>
 86c:	a3dff0ef          	jal	ra,2a8 <sort>
 870:	00001697          	auipc	a3,0x1
 874:	04468693          	addi	a3,a3,68 # 18b4 <input_data>
 878:	00000793          	li	a5,0
 87c:	00006537          	lui	a0,0x6
 880:	40000593          	li	a1,1024
 884:	0006a603          	lw	a2,0(a3)
 888:	00279713          	slli	a4,a5,0x2
 88c:	00e50733          	add	a4,a0,a4
 890:	00c72023          	sw	a2,0(a4)
 894:	00178793          	addi	a5,a5,1
 898:	00468693          	addi	a3,a3,4
 89c:	feb794e3          	bne	a5,a1,884 <main+0x3c>
 8a0:	55aa57b7          	lui	a5,0x55aa5
 8a4:	80000737          	lui	a4,0x80000
 8a8:	5aa78793          	addi	a5,a5,1450 # 55aa55aa <_end+0x55aa1cce>
 8ac:	00f72023          	sw	a5,0(a4) # 80000000 <_end+0x7fffc724>
 8b0:	0000006f          	j	8b0 <main+0x68>
